target datalayout = "e-m:e-p270:32:32-p271:32:32-p272:64:64-i64:64-i128:128-f80:128-n8:16:32:64-S128"
target triple = "x86_64-pc-linux-gnu"

@.str.9 = private unnamed_addr constant [2 x i8] c"\0A\00", align 1
@.str.10 = private unnamed_addr constant [39 x i8] c"    dfflegalize [options] [selection]\0A\00", align 1
@.str.11 = private unnamed_addr constant [48 x i8] c"Converts FFs to types supported by the target.\0A\00", align 1
@.str.12 = private unnamed_addr constant [45 x i8] c"    -cell <cell_type_pattern> <init_values>\0A\00", align 1
@.str.13 = private unnamed_addr constant [71 x i8] c"        specifies a supported group of FF cells.  <cell_type_pattern>\0A\00", align 1
@.str.14 = private unnamed_addr constant [71 x i8] c"        is a yosys internal fine cell name, where ? characters can be\0A\00", align 1
@.str.15 = private unnamed_addr constant [72 x i8] c"        as a wildcard matching any character.  <init_values> specifies\0A\00", align 1
@.str.16 = private unnamed_addr constant [73 x i8] c"        which initialization values these FF cells can support, and can\0A\00", align 1
@.str.17 = private unnamed_addr constant [20 x i8] c"        be one of:\0A\00", align 1
@.str.18 = private unnamed_addr constant [39 x i8] c"        - x (no init value supported)\0A\00", align 1
@.str.19 = private unnamed_addr constant [13 x i8] c"        - 0\0A\00", align 1
@.str.20 = private unnamed_addr constant [13 x i8] c"        - 1\0A\00", align 1
@.str.21 = private unnamed_addr constant [75 x i8] c"        - r (init value has to match reset value, only for some FF types)\0A\00", align 1
@.str.22 = private unnamed_addr constant [40 x i8] c"        - 01 (both 0 and 1 supported).\0A\00", align 1
@.str.23 = private unnamed_addr constant [18 x i8] c"    -mince <num>\0A\00", align 1
@.str.24 = private unnamed_addr constant [74 x i8] c"        specifies a minimum number of FFs that should be using any given\0A\00", align 1
@.str.25 = private unnamed_addr constant [74 x i8] c"        clock enable signal.  If a clock enable signal doesn't meet this\0A\00", align 1
@.str.26 = private unnamed_addr constant [52 x i8] c"        threshold, it is unmapped into soft logic.\0A\00", align 1
@.str.27 = private unnamed_addr constant [20 x i8] c"    -minsrst <num>\0A\00", align 1
@.str.28 = private unnamed_addr constant [78 x i8] c"        sync set/reset signal.  If a sync set/reset signal doesn't meet this\0A\00", align 1
@.str.29 = private unnamed_addr constant [71 x i8] c"The following cells are supported by this pass (ie. will be ingested,\0A\00", align 1
@.str.30 = private unnamed_addr constant [43 x i8] c"and can be specified as allowed targets):\0A\00", align 1
@.str.31 = private unnamed_addr constant [15 x i8] c"- $_DFF_[NP]_\0A\00", align 1
@.str.32 = private unnamed_addr constant [20 x i8] c"- $_DFFE_[NP][NP]_\0A\00", align 1
@.str.33 = private unnamed_addr constant [23 x i8] c"- $_DFF_[NP][NP][01]_\0A\00", align 1
@.str.34 = private unnamed_addr constant [28 x i8] c"- $_DFFE_[NP][NP][01][NP]_\0A\00", align 1
@.str.35 = private unnamed_addr constant [21 x i8] c"- $_ALDFF_[NP][NP]_\0A\00", align 1
@.str.36 = private unnamed_addr constant [26 x i8] c"- $_ALDFFE_[NP][NP][NP]_\0A\00", align 1
@.str.37 = private unnamed_addr constant [25 x i8] c"- $_DFFSR_[NP][NP][NP]_\0A\00", align 1
@.str.38 = private unnamed_addr constant [30 x i8] c"- $_DFFSRE_[NP][NP][NP][NP]_\0A\00", align 1
@.str.39 = private unnamed_addr constant [24 x i8] c"- $_SDFF_[NP][NP][01]_\0A\00", align 1
@.str.40 = private unnamed_addr constant [29 x i8] c"- $_SDFFE_[NP][NP][01][NP]_\0A\00", align 1
@.str.41 = private unnamed_addr constant [30 x i8] c"- $_SDFFCE_[NP][NP][01][NP]_\0A\00", align 1
@.str.42 = private unnamed_addr constant [18 x i8] c"- $_SR_[NP][NP]_\0A\00", align 1
@.str.43 = private unnamed_addr constant [18 x i8] c"- $_DLATCH_[NP]_\0A\00", align 1
@.str.44 = private unnamed_addr constant [26 x i8] c"- $_DLATCH_[NP][NP][01]_\0A\00", align 1
@.str.45 = private unnamed_addr constant [28 x i8] c"- $_DLATCHSR_[NP][NP][NP]_\0A\00", align 1
@.str.46 = private unnamed_addr constant [59 x i8] c"The following transformations are performed by this pass:\0A\00", align 1
@.str.47 = private unnamed_addr constant [77 x i8] c"- upconversion from a less capable cell to a more capable cell, if the less\0A\00", align 1
@.str.48 = private unnamed_addr constant [69 x i8] c"  capable cell is not supported (eg. dff -> dffe, or adff -> dffsr)\0A\00", align 1
@.str.49 = private unnamed_addr constant [76 x i8] c"- unmapping FFs with clock enable (due to unsupported cell type or -mince)\0A\00", align 1
@.str.50 = private unnamed_addr constant [76 x i8] c"- unmapping FFs with sync reset (due to unsupported cell type or -minsrst)\0A\00", align 1
@.str.51 = private unnamed_addr constant [70 x i8] c"- adding inverters on the control pins (due to unsupported polarity)\0A\00", align 1
@.str.52 = private unnamed_addr constant [76 x i8] c"- adding inverters on the D and Q pins and inverting the init/reset values\0A\00", align 1
@.str.53 = private unnamed_addr constant [44 x i8] c"  (due to unsupported init or reset value)\0A\00", align 1
@.str.54 = private unnamed_addr constant [73 x i8] c"- converting sr into adlatch (by tying D to 1 and using E as set input)\0A\00", align 1
@.str.55 = private unnamed_addr constant [62 x i8] c"- emulating unsupported dffsr cell by adff + adff + sr + mux\0A\00", align 1
@.str.56 = private unnamed_addr constant [71 x i8] c"- emulating unsupported dlatchsr cell by adlatch + adlatch + sr + mux\0A\00", align 1
@.str.57 = private unnamed_addr constant [77 x i8] c"- emulating adff when the (reset, init) value combination is unsupported by\0A\00", align 1
@.str.58 = private unnamed_addr constant [29 x i8] c"  dff + adff + dlatch + mux\0A\00", align 1
@.str.59 = private unnamed_addr constant [80 x i8] c"- emulating adlatch when the (reset, init) value combination is unsupported by\0A\00", align 1
@.str.60 = private unnamed_addr constant [35 x i8] c"- dlatch + adlatch + dlatch + mux\0A\00", align 1
@.str.61 = private unnamed_addr constant [82 x i8] c"If the pass is unable to realize a given cell type (eg. adff when only plain dff\0A\00", align 1
@.str.62 = private unnamed_addr constant [36 x i8] c"is available), an error is raised.\0A\00", align 1

; Function Attrs: mustprogress uwtable
define internal void @_ZN12_GLOBAL__N_115DffLegalizePass4helpEv(ptr noundef nonnull align 8 dereferenceable(2536) %0) unnamed_addr #4 align 2 {
  %2 = alloca ptr, align 8
  store ptr %0, ptr %2, align 8
  call void (ptr, ...) @_ZN5Yosys3logEPKcz(ptr noundef @.str.9)
  call void (ptr, ...) @_ZN5Yosys3logEPKcz(ptr noundef @.str.10)
  call void (ptr, ...) @_ZN5Yosys3logEPKcz(ptr noundef @.str.9)
  call void (ptr, ...) @_ZN5Yosys3logEPKcz(ptr noundef @.str.11)
  call void (ptr, ...) @_ZN5Yosys3logEPKcz(ptr noundef @.str.9)
  call void (ptr, ...) @_ZN5Yosys3logEPKcz(ptr noundef @.str.12)
  call void (ptr, ...) @_ZN5Yosys3logEPKcz(ptr noundef @.str.13)
  call void (ptr, ...) @_ZN5Yosys3logEPKcz(ptr noundef @.str.14)
  call void (ptr, ...) @_ZN5Yosys3logEPKcz(ptr noundef @.str.15)
  call void (ptr, ...) @_ZN5Yosys3logEPKcz(ptr noundef @.str.16)
  call void (ptr, ...) @_ZN5Yosys3logEPKcz(ptr noundef @.str.17)
  call void (ptr, ...) @_ZN5Yosys3logEPKcz(ptr noundef @.str.9)
  call void (ptr, ...) @_ZN5Yosys3logEPKcz(ptr noundef @.str.18)
  call void (ptr, ...) @_ZN5Yosys3logEPKcz(ptr noundef @.str.19)
  call void (ptr, ...) @_ZN5Yosys3logEPKcz(ptr noundef @.str.20)
  call void (ptr, ...) @_ZN5Yosys3logEPKcz(ptr noundef @.str.21)
  call void (ptr, ...) @_ZN5Yosys3logEPKcz(ptr noundef @.str.22)
  call void (ptr, ...) @_ZN5Yosys3logEPKcz(ptr noundef @.str.9)
  call void (ptr, ...) @_ZN5Yosys3logEPKcz(ptr noundef @.str.23)
  call void (ptr, ...) @_ZN5Yosys3logEPKcz(ptr noundef @.str.24)
  call void (ptr, ...) @_ZN5Yosys3logEPKcz(ptr noundef @.str.25)
  call void (ptr, ...) @_ZN5Yosys3logEPKcz(ptr noundef @.str.26)
  call void (ptr, ...) @_ZN5Yosys3logEPKcz(ptr noundef @.str.9)
  call void (ptr, ...) @_ZN5Yosys3logEPKcz(ptr noundef @.str.27)
  call void (ptr, ...) @_ZN5Yosys3logEPKcz(ptr noundef @.str.24)
  call void (ptr, ...) @_ZN5Yosys3logEPKcz(ptr noundef @.str.28)
  call void (ptr, ...) @_ZN5Yosys3logEPKcz(ptr noundef @.str.26)
  call void (ptr, ...) @_ZN5Yosys3logEPKcz(ptr noundef @.str.9)
  call void (ptr, ...) @_ZN5Yosys3logEPKcz(ptr noundef @.str.29)
  call void (ptr, ...) @_ZN5Yosys3logEPKcz(ptr noundef @.str.30)
  call void (ptr, ...) @_ZN5Yosys3logEPKcz(ptr noundef @.str.9)
  call void (ptr, ...) @_ZN5Yosys3logEPKcz(ptr noundef @.str.31)
  call void (ptr, ...) @_ZN5Yosys3logEPKcz(ptr noundef @.str.32)
  call void (ptr, ...) @_ZN5Yosys3logEPKcz(ptr noundef @.str.33)
  call void (ptr, ...) @_ZN5Yosys3logEPKcz(ptr noundef @.str.34)
  call void (ptr, ...) @_ZN5Yosys3logEPKcz(ptr noundef @.str.35)
  call void (ptr, ...) @_ZN5Yosys3logEPKcz(ptr noundef @.str.36)
  call void (ptr, ...) @_ZN5Yosys3logEPKcz(ptr noundef @.str.37)
  call void (ptr, ...) @_ZN5Yosys3logEPKcz(ptr noundef @.str.38)
  call void (ptr, ...) @_ZN5Yosys3logEPKcz(ptr noundef @.str.39)
  call void (ptr, ...) @_ZN5Yosys3logEPKcz(ptr noundef @.str.40)
  call void (ptr, ...) @_ZN5Yosys3logEPKcz(ptr noundef @.str.41)
  call void (ptr, ...) @_ZN5Yosys3logEPKcz(ptr noundef @.str.42)
  call void (ptr, ...) @_ZN5Yosys3logEPKcz(ptr noundef @.str.43)
  call void (ptr, ...) @_ZN5Yosys3logEPKcz(ptr noundef @.str.44)
  call void (ptr, ...) @_ZN5Yosys3logEPKcz(ptr noundef @.str.45)
  call void (ptr, ...) @_ZN5Yosys3logEPKcz(ptr noundef @.str.9)
  call void (ptr, ...) @_ZN5Yosys3logEPKcz(ptr noundef @.str.46)
  call void (ptr, ...) @_ZN5Yosys3logEPKcz(ptr noundef @.str.9)
  call void (ptr, ...) @_ZN5Yosys3logEPKcz(ptr noundef @.str.47)
  call void (ptr, ...) @_ZN5Yosys3logEPKcz(ptr noundef @.str.48)
  call void (ptr, ...) @_ZN5Yosys3logEPKcz(ptr noundef @.str.49)
  call void (ptr, ...) @_ZN5Yosys3logEPKcz(ptr noundef @.str.50)
  call void (ptr, ...) @_ZN5Yosys3logEPKcz(ptr noundef @.str.51)
  call void (ptr, ...) @_ZN5Yosys3logEPKcz(ptr noundef @.str.52)
  call void (ptr, ...) @_ZN5Yosys3logEPKcz(ptr noundef @.str.53)
  call void (ptr, ...) @_ZN5Yosys3logEPKcz(ptr noundef @.str.54)
  call void (ptr, ...) @_ZN5Yosys3logEPKcz(ptr noundef @.str.55)
  call void (ptr, ...) @_ZN5Yosys3logEPKcz(ptr noundef @.str.56)
  call void (ptr, ...) @_ZN5Yosys3logEPKcz(ptr noundef @.str.57)
  call void (ptr, ...) @_ZN5Yosys3logEPKcz(ptr noundef @.str.58)
  call void (ptr, ...) @_ZN5Yosys3logEPKcz(ptr noundef @.str.59)
  call void (ptr, ...) @_ZN5Yosys3logEPKcz(ptr noundef @.str.60)
  call void (ptr, ...) @_ZN5Yosys3logEPKcz(ptr noundef @.str.61)
  call void (ptr, ...) @_ZN5Yosys3logEPKcz(ptr noundef @.str.62)
  ret void
}